target datalayout = "e-m:e-p270:32:32-p271:32:32-p272:64:64-i64:64-i128:128-f80:128-n8:16:32:64-S128"
target triple = "x86_64-pc-linux-gnu"

@proto_register_sapms.ett = internal global [1 x ptr] [ptr @ett_sapms], align 8
@.str.260 = private unnamed_addr constant [28 x i8] c"SAP Message Server Protocol\00", align 1
@.str.261 = private unnamed_addr constant [6 x i8] c"SAPMS\00", align 1
@.str.262 = private unnamed_addr constant [6 x i8] c"sapms\00", align 1
@proto_sapms = internal global i32 0, align 4
@global_sapms_port_range = internal global ptr null, align 8
@.str.263 = private unnamed_addr constant [10 x i8] c"3600,3900\00", align 1
@.str.264 = private unnamed_addr constant [10 x i8] c"tcp_ports\00", align 1
@.str.265 = private unnamed_addr constant [33 x i8] c"SAP MS Protocol TCP port numbers\00", align 1
@.str.266 = private unnamed_addr constant [58 x i8] c"Port numbers used for SAP MS Protocol (default 3600,3900)\00", align 1
@.str.267 = private unnamed_addr constant [24 x i8] c"highlight_unknown_items\00", align 1
@.str.268 = private unnamed_addr constant [34 x i8] c"Highlight unknown SAP MS messages\00", align 1
@.str.269 = private unnamed_addr constant [130 x i8] c"Whether the SAP MS Protocol dissector should highlight unknown MS messages (might be noise and generate a lot of expert warnings)\00", align 1
@global_sapms_highlight_items = internal global i8 1, align 1

; Function Attrs: null_pointer_is_valid sspstrong uwtable
define hidden void @proto_register_sapms() #0 {
  %1 = alloca ptr, align 8
  %2 = alloca ptr, align 8
  call void @llvm.lifetime.start.p0(i64 8, ptr %1) #3
  call void @llvm.lifetime.start.p0(i64 8, ptr %2) #3
  %3 = call i32 @proto_register_protocol(ptr noundef @.str.260, ptr noundef @.str.261, ptr noundef @.str.262)
  store i32 %3, ptr @proto_sapms, align 4
  %4 = load i32, ptr @proto_sapms, align 4
  %5 = call ptr @register_dissector(ptr noundef @.str.262, ptr noundef @dissect_sapms, i32 noundef %4)
  %6 = load i32, ptr @proto_sapms, align 4
  call void @proto_register_field_array(i32 noundef %6, ptr noundef @proto_register_sapms.hf, i32 noundef 127)
  call void @proto_register_subtree_array(ptr noundef @proto_register_sapms.ett, i32 noundef 1)
  %7 = load i32, ptr @proto_sapms, align 4
  %8 = call ptr @expert_register_protocol(i32 noundef %7)
  store ptr %8, ptr %2, align 8
  %9 = load ptr, ptr %2, align 8
  call void @expert_register_field_array(ptr noundef %9, ptr noundef @proto_register_sapms.ei, i32 noundef 7)
  %10 = load i32, ptr @proto_sapms, align 4
  %11 = call ptr @prefs_register_protocol(i32 noundef %10, ptr noundef @proto_reg_handoff_sapms)
  store ptr %11, ptr %1, align 8
  %12 = call ptr @wmem_epan_scope()
  %13 = call i32 @range_convert_str(ptr noundef %12, ptr noundef @global_sapms_port_range, ptr noundef @.str.263, i32 noundef 65535)
  %14 = load ptr, ptr %1, align 8
  call void @prefs_register_range_preference(ptr noundef %14, ptr noundef @.str.264, ptr noundef @.str.265, ptr noundef @.str.266, ptr noundef @global_sapms_port_range, i32 noundef 65535)
  %15 = load ptr, ptr %1, align 8
  call void @prefs_register_bool_preference(ptr noundef %15, ptr noundef @.str.267, ptr noundef @.str.268, ptr noundef @.str.269, ptr noundef @global_sapms_highlight_items)
  call void @llvm.lifetime.end.p0(i64 8, ptr %2) #3
  call void @llvm.lifetime.end.p0(i64 8, ptr %1) #3
  ret void
}