; Function Attrs: null_pointer_is_valid sspstrong uwtable
define hidden void @proto_register_sapms() local_unnamed_addr #0 {
  %1 = tail call i32 @proto_register_protocol(ptr noundef nonnull @.str.260, ptr noundef nonnull @.str.261, ptr noundef nonnull @.str.262)
  store i32 %1, ptr @proto_sapms, align 4
  %2 = tail call ptr @register_dissector(ptr noundef nonnull @.str.262, ptr noundef nonnull @dissect_sapms, i32 noundef %1)
  %3 = load i32, ptr @proto_sapms, align 4
  tail call void @proto_register_field_array(i32 noundef %3, ptr noundef nonnull @proto_register_sapms.hf, i32 noundef 127)
  tail call void @proto_register_subtree_array(ptr noundef nonnull @proto_register_sapms.ett, i32 noundef 1)
  %4 = load i32, ptr @proto_sapms, align 4
  %5 = tail call ptr @expert_register_protocol(i32 noundef %4)
  tail call void @expert_register_field_array(ptr noundef %5, ptr noundef nonnull @proto_register_sapms.ei, i32 noundef 7)
  %6 = load i32, ptr @proto_sapms, align 4
  %7 = tail call ptr @prefs_register_protocol(i32 noundef %6, ptr noundef nonnull @proto_reg_handoff_sapms)
  %8 = tail call ptr @wmem_epan_scope()
  %9 = tail call i32 @range_convert_str(ptr noundef %8, ptr noundef nonnull @global_sapms_port_range, ptr noundef nonnull @.str.263, i32 noundef 65535)
  tail call void @prefs_register_range_preference(ptr noundef %7, ptr noundef nonnull @.str.264, ptr noundef nonnull @.str.265, ptr noundef nonnull @.str.266, ptr noundef nonnull @global_sapms_port_range, i32 noundef 65535)
  tail call void @prefs_register_bool_preference(ptr noundef %7, ptr noundef nonnull @.str.267, ptr noundef nonnull @.str.268, ptr noundef nonnull @.str.269, ptr noundef nonnull @global_sapms_highlight_items)
  ret void
}